target datalayout = "e-m:e-p270:32:32-p271:32:32-p272:64:64-i64:64-i128:128-f80:128-n8:16:32:64-S128"
target triple = "x86_64-pc-linux-gnu"

%"struct.osgeo::proj::operation::MethodMapping" = type { ptr, i32, ptr, ptr, ptr, ptr }
%"class.std::__cxx11::basic_string" = type { %"struct.std::__cxx11::basic_string<char>::_Alloc_hider", i64, %union.anon }
%"struct.std::__cxx11::basic_string<char>::_Alloc_hider" = type { ptr }
%union.anon = type { i64, [8 x i8] }

; Function Attrs: noinline noreturn nounwind uwtable
define linkonce_odr hidden void @__clang_call_terminate(ptr noundef %0) #7 comdat {
  %2 = call ptr @__cxa_begin_catch(ptr %0) #17
  call void @_ZSt9terminatev() #19
  unreachable
}

; Function Attrs: mustprogress nounwind uwtable
define available_externally noundef ptr @_ZNKSt7__cxx1112basic_stringIcSt11char_traitsIcESaIcEE7_M_dataEv(ptr noundef nonnull align 8 dereferenceable(32) %0) #2 align 2 {
  %2 = alloca ptr, align 8
  store ptr %0, ptr %2, align 8, !tbaa !29
  %3 = load ptr, ptr %2, align 8
  %4 = getelementptr inbounds nuw %"class.std::__cxx11::basic_string", ptr %3, i32 0, i32 0
  %5 = getelementptr inbounds nuw %"struct.std::__cxx11::basic_string<char>::_Alloc_hider", ptr %4, i32 0, i32 0
  %6 = load ptr, ptr %5, align 8, !tbaa !64
  ret ptr %6
}

; Function Attrs: mustprogress nounwind uwtable
define available_externally noundef ptr @_ZNKSt7__cxx1112basic_stringIcSt11char_traitsIcESaIcEE5c_strEv(ptr noundef nonnull align 8 dereferenceable(32) %0) #2 align 2 personality ptr @__gxx_personality_v0 {
  %2 = alloca ptr, align 8
  store ptr %0, ptr %2, align 8, !tbaa !29
  %3 = load ptr, ptr %2, align 8
  %4 = invoke noundef ptr @_ZNKSt7__cxx1112basic_stringIcSt11char_traitsIcESaIcEE7_M_dataEv(ptr noundef nonnull align 8 dereferenceable(32) %3)
          to label %5 unwind label %6

5:                                                ; preds = %1
  ret ptr %4

6:                                                ; preds = %1
  %7 = landingpad { ptr, i32 }
          catch ptr null
  %8 = extractvalue { ptr, i32 } %7, 0
  call void @__clang_call_terminate(ptr %8) #19
  unreachable
}

; Function Attrs: mustprogress nounwind uwtable
define hidden noundef ptr @_ZN5osgeo4proj9operation10getMappingEPKNS1_15OperationMethodE(ptr noundef %0) #2 {
  %2 = alloca ptr, align 8
  %3 = alloca ptr, align 8
  %4 = alloca ptr, align 8
  %5 = alloca i32, align 4
  %6 = alloca ptr, align 8
  %7 = alloca ptr, align 8
  %8 = alloca ptr, align 8
  %9 = alloca i32, align 4
  %10 = alloca ptr, align 8
  store ptr %0, ptr %3, align 8, !tbaa !27
  call void @llvm.lifetime.start.p0(i64 8, ptr %4) #17
  %11 = load ptr, ptr %3, align 8, !tbaa !27
  %12 = call noundef nonnull align 8 dereferenceable(32) ptr @_ZNK5osgeo4proj6common16IdentifiedObject7nameStrB5cxx11Ev(ptr noundef nonnull align 8 dereferenceable(40) %11) #18
  store ptr %12, ptr %4, align 8, !tbaa !29
  call void @llvm.lifetime.start.p0(i64 4, ptr %5) #17
  %13 = load ptr, ptr %3, align 8, !tbaa !27
  %14 = call noundef i32 @_ZNK5osgeo4proj9operation15OperationMethod11getEPSGCodeEv(ptr noundef nonnull align 8 dereferenceable(56) %13) #18
  store i32 %14, ptr %5, align 4, !tbaa !20
  call void @llvm.lifetime.start.p0(i64 8, ptr %6) #17
  store ptr @_ZN5osgeo4proj9operationL25gProjectionMethodMappingsE, ptr %6, align 8, !tbaa !21
  call void @llvm.lifetime.start.p0(i64 8, ptr %7) #17
  store ptr @_ZN5osgeo4proj9operationL25gProjectionMethodMappingsE, ptr %7, align 8, !tbaa !21
  call void @llvm.lifetime.start.p0(i64 8, ptr %8) #17
  store ptr getelementptr inbounds (%"struct.osgeo::proj::operation::MethodMapping", ptr @_ZN5osgeo4proj9operationL25gProjectionMethodMappingsE, i64 98), ptr %8, align 8, !tbaa !21
  br label %15

15:                                               ; preds = %43, %1
  %16 = load ptr, ptr %7, align 8, !tbaa !21
  %17 = load ptr, ptr %8, align 8, !tbaa !21
  %18 = icmp ne ptr %16, %17
  br i1 %18, label %20, label %19

19:                                               ; preds = %15
  store i32 2, ptr %9, align 4
  br label %46

20:                                               ; preds = %15
  call void @llvm.lifetime.start.p0(i64 8, ptr %10) #17
  %21 = load ptr, ptr %7, align 8, !tbaa !21
  store ptr %21, ptr %10, align 8, !tbaa !21
  %22 = load i32, ptr %5, align 4, !tbaa !20
  %23 = icmp ne i32 %22, 0
  br i1 %23, label %24, label %30

24:                                               ; preds = %20
  %25 = load ptr, ptr %10, align 8, !tbaa !21
  %26 = getelementptr inbounds nuw %"struct.osgeo::proj::operation::MethodMapping", ptr %25, i32 0, i32 1
  %27 = load i32, ptr %26, align 8, !tbaa !23
  %28 = load i32, ptr %5, align 4, !tbaa !20
  %29 = icmp eq i32 %27, %28
  br i1 %29, label %37, label %30

30:                                               ; preds = %24, %20
  %31 = load ptr, ptr %10, align 8, !tbaa !21
  %32 = getelementptr inbounds nuw %"struct.osgeo::proj::operation::MethodMapping", ptr %31, i32 0, i32 0
  %33 = load ptr, ptr %32, align 8, !tbaa !31
  %34 = load ptr, ptr %4, align 8, !tbaa !29
  %35 = call noundef ptr @_ZNKSt7__cxx1112basic_stringIcSt11char_traitsIcESaIcEE5c_strEv(ptr noundef nonnull align 8 dereferenceable(32) %34) #17
  %36 = call noundef zeroext i1 @_ZN5osgeo4proj8metadata10Identifier16isEquivalentNameEPKcS4_(ptr noundef %33, ptr noundef %35) #17
  br i1 %36, label %37, label %39

37:                                               ; preds = %30, %24
  %38 = load ptr, ptr %10, align 8, !tbaa !21
  store ptr %38, ptr %2, align 8
  store i32 1, ptr %9, align 4
  br label %40

39:                                               ; preds = %30
  store i32 0, ptr %9, align 4
  br label %40

40:                                               ; preds = %39, %37
  call void @llvm.lifetime.end.p0(i64 8, ptr %10) #17
  %41 = load i32, ptr %9, align 4
  switch i32 %41, label %46 [
    i32 0, label %42
  ]

42:                                               ; preds = %40
  br label %43

43:                                               ; preds = %42
  %44 = load ptr, ptr %7, align 8, !tbaa !21
  %45 = getelementptr inbounds nuw %"struct.osgeo::proj::operation::MethodMapping", ptr %44, i32 1
  store ptr %45, ptr %7, align 8, !tbaa !21
  br label %15

46:                                               ; preds = %40, %19
  call void @llvm.lifetime.end.p0(i64 8, ptr %8) #17
  call void @llvm.lifetime.end.p0(i64 8, ptr %7) #17
  call void @llvm.lifetime.end.p0(i64 8, ptr %6) #17
  %47 = load i32, ptr %9, align 4
  switch i32 %47, label %49 [
    i32 2, label %48
  ]

48:                                               ; preds = %46
  store ptr null, ptr %2, align 8
  store i32 1, ptr %9, align 4
  br label %49

49:                                               ; preds = %48, %46
  call void @llvm.lifetime.end.p0(i64 4, ptr %5) #17
  call void @llvm.lifetime.end.p0(i64 8, ptr %4) #17
  %50 = load ptr, ptr %2, align 8
  ret ptr %50
}