; Function Attrs: mustprogress nounwind uwtable
define hidden noundef ptr @_ZN5osgeo4proj9operation10getMappingEPKNS1_15OperationMethodE(ptr noundef nonnull readonly %0) local_unnamed_addr #3 personality ptr @__gxx_personality_v0 {
  %2 = tail call noundef nonnull align 8 dereferenceable(32) ptr @_ZNK5osgeo4proj6common16IdentifiedObject7nameStrB5cxx11Ev(ptr noundef nonnull align 8 dereferenceable(40) %0) #16
  %3 = tail call noundef i32 @_ZNK5osgeo4proj9operation15OperationMethod11getEPSGCodeEv(ptr noundef nonnull align 8 dereferenceable(56) %0) #16
  %.not19 = icmp eq i32 %3, 0
  br i1 %.not19, label %.split.us, label %.split

.split.us:                                        ; preds = %1, %7
  %.017.idx24.us = phi i64 [ %.017.add.us, %7 ], [ 0, %1 ]
  %.017.ptr26.us = getelementptr inbounds nuw i8, ptr @_ZN5osgeo4proj9operationL25gProjectionMethodMappingsE, i64 %.017.idx24.us
  %4 = load ptr, ptr %.017.ptr26.us, align 16, !tbaa !14
  %5 = load ptr, ptr %2, align 8, !tbaa !15
  %6 = tail call noundef zeroext i1 @_ZN5osgeo4proj8metadata10Identifier16isEquivalentNameEPKcS4_(ptr noundef %4, ptr noundef %5) #17
  br i1 %6, label %.thread.loopexit.split.loop.exit, label %7

7:                                                ; preds = %.split.us
  %.017.add.us = add nuw nsw i64 %.017.idx24.us, 48
  %.not.us = icmp eq i64 %.017.add.us, 4704
  br i1 %.not.us, label %.thread, label %.split.us

8:                                                ; preds = %12
  %.017.add = add nuw nsw i64 %.017.idx24, 48
  %.not = icmp eq i64 %.017.add, 4704
  br i1 %.not, label %.thread, label %.split

.split:                                           ; preds = %1, %8
  %.017.idx24 = phi i64 [ %.017.add, %8 ], [ 0, %1 ]
  %.017.ptr26 = getelementptr inbounds nuw i8, ptr @_ZN5osgeo4proj9operationL25gProjectionMethodMappingsE, i64 %.017.idx24
  %9 = getelementptr inbounds nuw i8, ptr %.017.ptr26, i64 8
  %10 = load i32, ptr %9, align 8, !tbaa !7
  %11 = icmp eq i32 %10, %3
  br i1 %11, label %.thread, label %12

12:                                               ; preds = %.split
  %13 = load ptr, ptr %.017.ptr26, align 16, !tbaa !14
  %14 = load ptr, ptr %2, align 8, !tbaa !15
  %15 = tail call noundef zeroext i1 @_ZN5osgeo4proj8metadata10Identifier16isEquivalentNameEPKcS4_(ptr noundef %13, ptr noundef %14) #17
  br i1 %15, label %.thread, label %8

.thread.loopexit.split.loop.exit:                 ; preds = %.split.us
  %.017.ptr26.us.le = getelementptr inbounds nuw i8, ptr @_ZN5osgeo4proj9operationL25gProjectionMethodMappingsE, i64 %.017.idx24.us
  br label %.thread

.thread:                                          ; preds = %12, %8, %.split, %7, %.thread.loopexit.split.loop.exit
  %.us-phi = phi ptr [ %.017.ptr26.us.le, %.thread.loopexit.split.loop.exit ], [ null, %7 ], [ %.017.ptr26, %12 ], [ null, %8 ], [ %.017.ptr26, %.split ]
  ret ptr %.us-phi
}